target datalayout = "e-m:e-p270:32:32-p271:32:32-p272:64:64-i64:64-i128:128-f80:128-n8:16:32:64-S128"
target triple = "x86_64-pc-linux-gnu"

%struct.SDL_Properties = type { ptr, ptr }
%struct.SDL_Property = type { i32, %union.anon, ptr, ptr, ptr }
%union.anon = type { ptr }

@SDL_properties = internal global ptr null, align 8

; Function Attrs: nounwind uwtable
define hidden i32 @SDL_GetPropertyType_REAL(i32 noundef %0, ptr noundef %1) #0 {
  %3 = alloca i32, align 4
  %4 = alloca i32, align 4
  %5 = alloca ptr, align 8
  %6 = alloca ptr, align 8
  %7 = alloca i32, align 4
  %8 = alloca i32, align 4
  %9 = alloca ptr, align 8
  store i32 %0, ptr %4, align 4
  store ptr %1, ptr %5, align 8
  call void @llvm.lifetime.start.p0(i64 8, ptr %6) #6
  store ptr null, ptr %6, align 8
  call void @llvm.lifetime.start.p0(i64 4, ptr %7) #6
  store i32 0, ptr %7, align 4
  %10 = load i32, ptr %4, align 4
  %11 = icmp ne i32 %10, 0
  br i1 %11, label %13, label %12

12:                                               ; preds = %2
  store i32 0, ptr %3, align 4
  store i32 1, ptr %8, align 4
  br label %48

13:                                               ; preds = %2
  %14 = load ptr, ptr %5, align 8
  %15 = icmp ne ptr %14, null
  br i1 %15, label %16, label %20

16:                                               ; preds = %13
  %17 = load ptr, ptr %5, align 8
  %18 = load i8, ptr %17, align 1
  %19 = icmp ne i8 %18, 0
  br i1 %19, label %21, label %20

20:                                               ; preds = %16, %13
  store i32 0, ptr %3, align 4
  store i32 1, ptr %8, align 4
  br label %48

21:                                               ; preds = %16
  %22 = load ptr, ptr @SDL_properties, align 8
  %23 = load i32, ptr %4, align 4
  %24 = zext i32 %23 to i64
  %25 = inttoptr i64 %24 to ptr
  %26 = call zeroext i1 @SDL_FindInHashTable(ptr noundef %22, ptr noundef %25, ptr noundef %6)
  %27 = load ptr, ptr %6, align 8
  %28 = icmp ne ptr %27, null
  br i1 %28, label %30, label %29

29:                                               ; preds = %21
  store i32 0, ptr %3, align 4
  store i32 1, ptr %8, align 4
  br label %48

30:                                               ; preds = %21
  %31 = load ptr, ptr %6, align 8
  %32 = getelementptr inbounds nuw %struct.SDL_Properties, ptr %31, i32 0, i32 1
  %33 = load ptr, ptr %32, align 8
  call void @SDL_LockMutex_REAL(ptr noundef %33)
  call void @llvm.lifetime.start.p0(i64 8, ptr %9) #6
  store ptr null, ptr %9, align 8
  %34 = load ptr, ptr %6, align 8
  %35 = getelementptr inbounds nuw %struct.SDL_Properties, ptr %34, i32 0, i32 0
  %36 = load ptr, ptr %35, align 8
  %37 = load ptr, ptr %5, align 8
  %38 = call zeroext i1 @SDL_FindInHashTable(ptr noundef %36, ptr noundef %37, ptr noundef %9)
  br i1 %38, label %39, label %43

39:                                               ; preds = %30
  %40 = load ptr, ptr %9, align 8
  %41 = getelementptr inbounds nuw %struct.SDL_Property, ptr %40, i32 0, i32 0
  %42 = load i32, ptr %41, align 8
  store i32 %42, ptr %7, align 4
  br label %43

43:                                               ; preds = %39, %30
  call void @llvm.lifetime.end.p0(i64 8, ptr %9) #6
  %44 = load ptr, ptr %6, align 8
  %45 = getelementptr inbounds nuw %struct.SDL_Properties, ptr %44, i32 0, i32 1
  %46 = load ptr, ptr %45, align 8
  call void @SDL_UnlockMutex_REAL(ptr noundef %46)
  %47 = load i32, ptr %7, align 4
  store i32 %47, ptr %3, align 4
  store i32 1, ptr %8, align 4
  br label %48

48:                                               ; preds = %43, %29, %20, %12
  call void @llvm.lifetime.end.p0(i64 4, ptr %7) #6
  call void @llvm.lifetime.end.p0(i64 8, ptr %6) #6
  %49 = load i32, ptr %3, align 4
  ret i32 %49
}