; Function Attrs: nounwind uwtable
define hidden i32 @SDL_GetPropertyType_REAL(i32 noundef %0, ptr noundef %1) local_unnamed_addr #0 {
  %3 = alloca ptr, align 8
  %4 = alloca ptr, align 8
  call void @llvm.lifetime.start.p0(i64 8, ptr nonnull %3) #6
  store ptr null, ptr %3, align 8
  %.not = icmp eq i32 %0, 0
  %.not10 = icmp eq ptr %1, null
  %or.cond = or i1 %.not, %.not10
  br i1 %or.cond, label %26, label %5

5:                                                ; preds = %2
  %6 = load i8, ptr %1, align 1
  %.not11 = icmp eq i8 %6, 0
  br i1 %.not11, label %26, label %7

7:                                                ; preds = %5
  %8 = load ptr, ptr @SDL_properties, align 8
  %9 = zext i32 %0 to i64
  %10 = inttoptr i64 %9 to ptr
  %11 = call zeroext i1 @SDL_FindInHashTable(ptr noundef %8, ptr noundef nonnull %10, ptr noundef nonnull %3) #6
  %12 = load ptr, ptr %3, align 8
  %.not12 = icmp eq ptr %12, null
  br i1 %.not12, label %26, label %13

13:                                               ; preds = %7
  %14 = getelementptr inbounds nuw i8, ptr %12, i64 8
  %15 = load ptr, ptr %14, align 8
  call void @SDL_LockMutex_REAL(ptr noundef %15) #6
  call void @llvm.lifetime.start.p0(i64 8, ptr nonnull %4) #6
  store ptr null, ptr %4, align 8
  %16 = load ptr, ptr %3, align 8
  %17 = load ptr, ptr %16, align 8
  %18 = call zeroext i1 @SDL_FindInHashTable(ptr noundef %17, ptr noundef nonnull %1, ptr noundef nonnull %4) #6
  br i1 %18, label %19, label %22

19:                                               ; preds = %13
  %20 = load ptr, ptr %4, align 8
  %21 = load i32, ptr %20, align 8
  br label %22

22:                                               ; preds = %19, %13
  %.0 = phi i32 [ %21, %19 ], [ 0, %13 ]
  call void @llvm.lifetime.end.p0(i64 8, ptr nonnull %4) #6
  %23 = load ptr, ptr %3, align 8
  %24 = getelementptr inbounds nuw i8, ptr %23, i64 8
  %25 = load ptr, ptr %24, align 8
  call void @SDL_UnlockMutex_REAL(ptr noundef %25) #6
  br label %26

26:                                               ; preds = %7, %5, %2, %22
  %.06 = phi i32 [ %.0, %22 ], [ 0, %2 ], [ 0, %5 ], [ 0, %7 ]
  call void @llvm.lifetime.end.p0(i64 8, ptr nonnull %3) #6
  ret i32 %.06
}